; Function Attrs: nounwind uwtable
define ptr @l_Lean_Compiler_LCNF_Simp_CtorInfo_getNumFields(ptr noundef %0) local_unnamed_addr #1 {
  %2 = ptrtoint ptr %0 to i64
  %3 = and i64 %2, 1
  %.not.i = icmp eq i64 %3, 0
  br i1 %.not.i, label %7, label %4

4:                                                ; preds = %1
  %5 = lshr i64 %2, 1
  %6 = trunc i64 %5 to i32
  br label %lean_obj_tag.exit

7:                                                ; preds = %1
  %8 = getelementptr i8, ptr %0, i64 4
  %.val.i = load i32, ptr %8, align 4
  %9 = lshr i32 %.val.i, 24
  br label %lean_obj_tag.exit

lean_obj_tag.exit:                                ; preds = %4, %7
  %.0.i11 = phi i32 [ %6, %4 ], [ %9, %7 ]
  %10 = icmp eq i32 %.0.i11, 0
  %11 = getelementptr inbounds nuw i8, ptr %0, i64 8
  %12 = load ptr, ptr %11, align 8, !tbaa !9
  br i1 %10, label %13, label %24

13:                                               ; preds = %lean_obj_tag.exit
  %14 = getelementptr inbounds nuw i8, ptr %12, i64 40
  %15 = load ptr, ptr %14, align 8, !tbaa !9
  %16 = ptrtoint ptr %15 to i64
  %17 = and i64 %16, 1
  %.not14 = icmp eq i64 %17, 0
  br i1 %.not14, label %18, label %lean_inc.exit

18:                                               ; preds = %13
  %.val.i12 = load i32, ptr %15, align 4, !tbaa !4
  %19 = icmp sgt i32 %.val.i12, 0
  br i1 %19, label %20, label %22, !prof !11

20:                                               ; preds = %18
  %21 = add nuw i32 %.val.i12, 1
  store i32 %21, ptr %15, align 4, !tbaa !4
  br label %lean_inc.exit

22:                                               ; preds = %18
  %.not.i13 = icmp eq i32 %.val.i12, 0
  br i1 %.not.i13, label %lean_inc.exit, label %23

23:                                               ; preds = %22
  tail call void @lean_inc_ref_cold(ptr noundef nonnull %15) #4
  br label %lean_inc.exit

24:                                               ; preds = %lean_obj_tag.exit
  %25 = ptrtoint ptr %12 to i64
  %26 = and i64 %25, 1
  %.not = icmp eq i64 %26, 0
  br i1 %.not, label %.critedge.i, label %27, !prof !12

27:                                               ; preds = %24
  %28 = icmp eq ptr %12, inttoptr (i64 1 to ptr)
  br label %lean_nat_eq.exit

.critedge.i:                                      ; preds = %24
  %29 = tail call zeroext i1 @lean_nat_big_eq(ptr noundef %12, ptr noundef nonnull inttoptr (i64 1 to ptr)) #4
  br label %lean_nat_eq.exit

lean_nat_eq.exit:                                 ; preds = %27, %.critedge.i
  %.0.i = phi i1 [ %28, %27 ], [ %29, %.critedge.i ]
  %spec.select = select i1 %.0.i, ptr inttoptr (i64 1 to ptr), ptr inttoptr (i64 3 to ptr)
  br label %lean_inc.exit

lean_inc.exit:                                    ; preds = %lean_nat_eq.exit, %13, %20, %22, %23
  %.0 = phi ptr [ %15, %23 ], [ %15, %22 ], [ %15, %20 ], [ %15, %13 ], [ %spec.select, %lean_nat_eq.exit ]
  ret ptr %.0
}